; Function Attrs: nounwind uwtable
define ptr @wc_ecc_new_point_h(ptr noundef readnone captures(none) %heap) local_unnamed_addr #2 {
if.end3.i:
  %call.i = tail call ptr @wolfSSL_Malloc(i64 noundef 3120) #19
  %cmp4.i = icmp eq ptr %call.i, null
  br i1 %cmp4.i, label %wc_ecc_new_point_ex.exit, label %if.end6.i

if.end6.i:                                        ; preds = %if.end3.i
  tail call void @llvm.memset.p0.i64(ptr noundef nonnull align 8 dereferenceable(3120) %call.i, i8 0, i64 3120, i1 false)
  %y.i = getelementptr inbounds nuw i8, ptr %call.i, i64 1040
  %z.i = getelementptr inbounds nuw i8, ptr %call.i, i64 2080
  %call9.i = tail call i32 @sp_init_multi(ptr noundef nonnull %call.i, ptr noundef nonnull %y.i, ptr noundef nonnull %z.i, ptr noundef null, ptr noundef null, ptr noundef null) #19
  %cmp10.not.i = icmp eq i32 %call9.i, 0
  br i1 %cmp10.not.i, label %wc_ecc_new_point_ex.exit, label %if.then12.i

if.then12.i:                                      ; preds = %if.end6.i
  tail call void @wolfSSL_Free(ptr noundef nonnull %call.i) #19
  br label %wc_ecc_new_point_ex.exit

wc_ecc_new_point_ex.exit:                         ; preds = %if.end6.i, %if.end3.i, %if.then12.i
  %p.0 = phi ptr [ null, %if.end3.i ], [ null, %if.then12.i ], [ %call.i, %if.end6.i ]
  ret ptr %p.0
}